; Function Attrs: mustprogress nofree norecurse nosync nounwind willreturn memory(argmem: read) uwtable
define hidden noundef i32 @_ZNK3ue213ReportManager13numLogicalOpsEv(ptr noundef nonnull readonly align 8 captures(none) dereferenceable(505) %0) local_unnamed_addr #3 align 2 {
  %2 = getelementptr inbounds nuw i8, ptr %0, i64 168
  %3 = getelementptr inbounds nuw i8, ptr %0, i64 176
  %4 = load ptr, ptr %3, align 8
  %5 = load ptr, ptr %2, align 8
  %6 = ptrtoint ptr %4 to i64
  %7 = ptrtoint ptr %5 to i64
  %8 = sub i64 %6, %7
  %9 = lshr exact i64 %8, 4
  %10 = trunc i64 %9 to i32
  ret i32 %10
}